target datalayout = "e-m:e-p270:32:32-p271:32:32-p272:64:64-i64:64-i128:128-f80:128-n8:16:32:64-S128"
target triple = "x86_64-pc-linux-gnu"

@.str.1 = private unnamed_addr constant [101 x i8] c"generated/home/dtcxzyw/WorkSpace/Projects/compilers/llvm-opt-benchmark/bench/hdf5/hdf5/src/H5Pdxpl.c\00", align 1
@H5E_PLIST_g = external global i64, align 8
@H5E_CANTCLOSEOBJ_g = external global i64, align 8
@.str.72 = private unnamed_addr constant [29 x i8] c"error closing the parse tree\00", align 1
@__func__.H5P__dxfr_xform_close = private unnamed_addr constant [22 x i8] c"H5P__dxfr_xform_close\00", align 1

; Function Attrs: nounwind uwtable
define internal i32 @H5P__dxfr_xform_close(ptr noundef %0, i64 noundef %1, ptr noundef %2) #0 {
  %4 = alloca ptr, align 8
  %5 = alloca i64, align 8
  %6 = alloca ptr, align 8
  %7 = alloca i32, align 4
  %8 = alloca i8, align 1
  store ptr %0, ptr %4, align 8
  store i64 %1, ptr %5, align 8
  store ptr %2, ptr %6, align 8
  store i32 0, ptr %7, align 4
  store i8 0, ptr %8, align 1
  %9 = load ptr, ptr %6, align 8
  %10 = load ptr, ptr %9, align 8
  %11 = call i32 @H5Z_xform_destroy(ptr noundef %10)
  %12 = icmp slt i32 %11, 0
  br i1 %12, label %13, label %28

13:                                               ; preds = %3
  br label %14

14:                                               ; preds = %13
  br label %15

15:                                               ; preds = %14
  br label %16

16:                                               ; preds = %15
  %17 = load i64, ptr @H5E_PLIST_g, align 8
  %18 = load i64, ptr @H5E_CANTCLOSEOBJ_g, align 8
  %19 = call i32 (ptr, ptr, i32, i64, i64, ptr, ...) @H5E_printf_stack(ptr noundef @.str.1, ptr noundef @__func__.H5P__dxfr_xform_close, i32 noundef 948, i64 noundef %17, i64 noundef %18, ptr noundef @.str.72)
  br label %20

20:                                               ; preds = %16
  store i8 1, ptr %8, align 1
  %21 = load i8, ptr %8, align 1
  %22 = trunc i8 %21 to i1
  %23 = zext i1 %22 to i8
  store i8 %23, ptr %8, align 1
  br label %24

24:                                               ; preds = %20
  br label %25

25:                                               ; preds = %24
  store i32 -1, ptr %7, align 4
  br label %29

26:                                               ; No predecessors!
  br label %27

27:                                               ; preds = %26
  br label %28

28:                                               ; preds = %27, %3
  br label %29

29:                                               ; preds = %28, %25
  %30 = load i32, ptr %7, align 4
  ret i32 %30
}