; Function Attrs: nounwind uwtable
define internal range(i32 -1, 1) i32 @H5P__dxfr_xform_close(ptr nocapture readnone %0, i64 %1, ptr nocapture noundef readonly %2) #0 {
  %4 = load ptr, ptr %2, align 8
  %5 = tail call i32 @H5Z_xform_destroy(ptr noundef %4) #8
  %6 = icmp slt i32 %5, 0
  br i1 %6, label %7, label %11

7:                                                ; preds = %3
  %8 = load i64, ptr @H5E_PLIST_g, align 8
  %9 = load i64, ptr @H5E_CANTCLOSEOBJ_g, align 8
  %10 = tail call i32 (ptr, ptr, i32, i64, i64, ptr, ...) @H5E_printf_stack(ptr noundef nonnull @.str.1, ptr noundef nonnull @__func__.H5P__dxfr_xform_close, i32 noundef 948, i64 noundef %8, i64 noundef %9, ptr noundef nonnull @.str.72) #8
  br label %11

11:                                               ; preds = %3, %7
  %.0 = phi i32 [ -1, %7 ], [ 0, %3 ]
  ret i32 %.0
}